target datalayout = "e-m:e-p270:32:32-p271:32:32-p272:64:64-i64:64-i128:128-f80:128-n8:16:32:64-S128"
target triple = "x86_64-unknown-linux-gnu"

%"class.icu_75::LocaleBuilder" = type { %"class.icu_75::UObject", i32, [9 x i8], [5 x i8], [4 x i8], ptr, ptr }
%"class.icu_75::UObject" = type { ptr }

; Function Attrs: mustprogress nounwind uwtable
define internal noundef signext i8 @_ZL9U_FAILURE10UErrorCode(i32 noundef %code) #0 {
entry:
  %code.addr = alloca i32, align 4
  store i32 %code, ptr %code.addr, align 4
  %0 = load i32, ptr %code.addr, align 4
  %cmp = icmp sgt i32 %0, 0
  %conv = zext i1 %cmp to i8
  ret i8 %conv
}

; Function Attrs: mustprogress uwtable
define noundef signext i8 @_ZNK6icu_7513LocaleBuilder11copyErrorToER10UErrorCode(ptr noundef nonnull align 8 dereferenceable(48) %this, ptr noundef nonnull align 4 dereferenceable(4) %outErrorCode) #1 align 2 {
entry:
  %retval = alloca i8, align 1
  %this.addr = alloca ptr, align 8
  %outErrorCode.addr = alloca ptr, align 8
  store ptr %this, ptr %this.addr, align 8
  store ptr %outErrorCode, ptr %outErrorCode.addr, align 8
  %this1 = load ptr, ptr %this.addr, align 8
  %0 = load ptr, ptr %outErrorCode.addr, align 8
  %1 = load i32, ptr %0, align 4
  %call = call noundef signext i8 @_ZL9U_FAILURE10UErrorCode(i32 noundef %1)
  %tobool = icmp ne i8 %call, 0
  br i1 %tobool, label %if.then, label %if.end

if.then:                                          ; preds = %entry
  store i8 1, ptr %retval, align 1
  br label %return

if.end:                                           ; preds = %entry
  %status_ = getelementptr inbounds %"class.icu_75::LocaleBuilder", ptr %this1, i32 0, i32 1
  %2 = load i32, ptr %status_, align 8
  %3 = load ptr, ptr %outErrorCode.addr, align 8
  store i32 %2, ptr %3, align 4
  %4 = load ptr, ptr %outErrorCode.addr, align 8
  %5 = load i32, ptr %4, align 4
  %call2 = call noundef signext i8 @_ZL9U_FAILURE10UErrorCode(i32 noundef %5)
  store i8 %call2, ptr %retval, align 1
  br label %return

return:                                           ; preds = %if.end, %if.then
  %6 = load i8, ptr %retval, align 1
  ret i8 %6
}