; Function Attrs: mustprogress nofree norecurse nosync nounwind willreturn memory(argmem: readwrite) uwtable
define noundef signext i8 @_ZNK6icu_7513LocaleBuilder11copyErrorToER10UErrorCode(ptr nocapture noundef nonnull readonly align 8 dereferenceable(48) %this, ptr nocapture noundef nonnull align 4 dereferenceable(4) %outErrorCode) local_unnamed_addr #10 align 2 {
entry:
  %0 = load i32, ptr %outErrorCode, align 4
  %cmp.i = icmp slt i32 %0, 1
  br i1 %cmp.i, label %if.end, label %return

if.end:                                           ; preds = %entry
  %status_ = getelementptr inbounds i8, ptr %this, i64 8
  %1 = load i32, ptr %status_, align 8
  store i32 %1, ptr %outErrorCode, align 4
  %cmp.i3 = icmp sgt i32 %1, 0
  %conv.i4 = zext i1 %cmp.i3 to i8
  br label %return

return:                                           ; preds = %entry, %if.end
  %retval.0 = phi i8 [ %conv.i4, %if.end ], [ 1, %entry ]
  ret i8 %retval.0
}